target datalayout = "e-m:e-p270:32:32-p271:32:32-p272:64:64-i64:64-i128:128-f80:128-n8:16:32:64-S128"
target triple = "x86_64-pc-linux-gnu"

%struct.PlatformTarget = type { ptr, i32, ptr, ptr, i32, i32, i32, i32, i32, i32, i32, [7 x %struct.AlignData], [7 x %struct.AlignData], [7 x %struct.AlignData], i32, i16, %union.anon.88, i8, i8, i8, i8, i8, i8, i8, i8, i8, i8, %struct.AlignData, i32, i32, i32, i32, i32, i32, i32, i32, i32, i32, i32, i32, i32, i32, i32, i32, ptr }
%union.anon.88 = type { %struct.anon.90 }
%struct.anon.90 = type { %struct.X86Features, i32, i32 }
%struct.X86Features = type { [2 x i64], ptr }
%struct.AlignData = type { i32, i32 }
%struct.Type_ = type { i32, ptr, ptr, ptr, %union.anon.85, ptr, ptr, %union.anon.87 }
%union.anon.85 = type { ptr }
%union.anon.87 = type { %struct.TypeFunction }
%struct.TypeFunction = type { ptr, ptr, ptr }
%struct.TypeArray = type { ptr, i32 }

@platform_target = external global %struct.PlatformTarget, align 8

; Function Attrs: nounwind uwtable
define internal zeroext i1 @x64_type_is_illegal_vector(ptr noundef %0) #0 {
  %2 = alloca i1, align 1
  %3 = alloca ptr, align 8
  %4 = alloca i64, align 8
  %5 = alloca i32, align 4
  store ptr %0, ptr %3, align 8
  %6 = load ptr, ptr %3, align 8
  %7 = getelementptr inbounds %struct.Type_, ptr %6, i32 0, i32 0
  %8 = load i32, ptr %7, align 8
  %9 = icmp ne i32 %8, 37
  br i1 %9, label %10, label %11

10:                                               ; preds = %1
  store i1 false, ptr %2, align 1
  br label %43

11:                                               ; preds = %1
  %12 = load ptr, ptr %3, align 8
  %13 = call i32 @type_size(ptr noundef %12)
  %14 = zext i32 %13 to i64
  store i64 %14, ptr %4, align 8
  %15 = load i64, ptr %4, align 8
  %16 = icmp ule i64 %15, 8
  br i1 %16, label %22, label %17

17:                                               ; preds = %11
  %18 = load i64, ptr %4, align 8
  %19 = load i32, ptr getelementptr inbounds (%struct.anon.90, ptr getelementptr inbounds (%struct.PlatformTarget, ptr @platform_target, i32 0, i32 16), i32 0, i32 2), align 4
  %20 = sext i32 %19 to i64
  %21 = icmp ugt i64 %18, %20
  br i1 %21, label %22, label %23

22:                                               ; preds = %17, %11
  store i1 true, ptr %2, align 1
  br label %43

23:                                               ; preds = %17
  %24 = load i32, ptr getelementptr inbounds (%struct.anon.90, ptr getelementptr inbounds (%struct.PlatformTarget, ptr @platform_target, i32 0, i32 16), i32 0, i32 1), align 8
  %25 = lshr i32 %24, 19
  %26 = and i32 %25, 1
  %27 = trunc i32 %26 to i1
  br i1 %27, label %28, label %42

28:                                               ; preds = %23
  %29 = load ptr, ptr %3, align 8
  %30 = getelementptr inbounds %struct.Type_, ptr %29, i32 0, i32 7
  %31 = getelementptr inbounds %struct.TypeArray, ptr %30, i32 0, i32 0
  %32 = load ptr, ptr %31, align 8
  %33 = getelementptr inbounds %struct.Type_, ptr %32, i32 0, i32 0
  %34 = load i32, ptr %33, align 8
  store i32 %34, ptr %5, align 4
  %35 = load i32, ptr %5, align 4
  %36 = icmp eq i32 %35, 7
  br i1 %36, label %40, label %37

37:                                               ; preds = %28
  %38 = load i32, ptr %5, align 4
  %39 = icmp eq i32 %38, 12
  br label %40

40:                                               ; preds = %37, %28
  %41 = phi i1 [ true, %28 ], [ %39, %37 ]
  store i1 %41, ptr %2, align 1
  br label %43

42:                                               ; preds = %23
  store i1 false, ptr %2, align 1
  br label %43

43:                                               ; preds = %42, %40, %22, %10
  %44 = load i1, ptr %2, align 1
  ret i1 %44
}

; Function Attrs: nounwind uwtable
define dso_local ptr @x64_indirect_result(ptr noundef %0, i32 noundef %1) #0 {
  %3 = alloca ptr, align 8
  %4 = alloca i32, align 4
  %5 = alloca ptr, align 8
  %6 = alloca ptr, align 8
  %7 = alloca ptr, align 8
  %8 = alloca i32, align 4
  %9 = alloca i32, align 4
  %10 = alloca i64, align 8
  store ptr %0, ptr %7, align 8
  store i32 %1, ptr %8, align 4
  %11 = load ptr, ptr %7, align 8
  %12 = call ptr @type_lowering(ptr noundef %11)
  store ptr %12, ptr %7, align 8
  %13 = load ptr, ptr %7, align 8
  %14 = call zeroext i1 @type_is_abi_aggregate(ptr noundef %13)
  br i1 %14, label %52, label %15

15:                                               ; preds = %2
  %16 = load ptr, ptr %7, align 8
  %17 = call zeroext i1 @x64_type_is_illegal_vector(ptr noundef %16)
  br i1 %17, label %52, label %18

18:                                               ; preds = %15
  %19 = load ptr, ptr %7, align 8
  store ptr %19, ptr %5, align 8
  %20 = load ptr, ptr %5, align 8
  store ptr %20, ptr %3, align 8
  %21 = load ptr, ptr %3, align 8
  %22 = load i32, ptr %21, align 8
  store i32 %22, ptr %4, align 4
  %23 = load i32, ptr %4, align 4
  %24 = icmp eq i32 %23, 31
  br i1 %24, label %25, label %30

25:                                               ; preds = %18
  %26 = load ptr, ptr %3, align 8
  %27 = getelementptr inbounds %struct.Type_, ptr %26, i32 0, i32 1
  %28 = load ptr, ptr %27, align 8
  %29 = load i32, ptr %28, align 8
  store i32 %29, ptr %4, align 4
  br label %30

30:                                               ; preds = %25, %18
  %31 = load i32, ptr %4, align 4
  %32 = icmp uge i32 %31, 2
  br i1 %32, label %33, label %36

33:                                               ; preds = %30
  %34 = load i32, ptr %4, align 4
  %35 = icmp ule i32 %34, 12
  br label %36

36:                                               ; preds = %33, %30
  %37 = phi i1 [ false, %30 ], [ %35, %33 ]
  br i1 %37, label %38, label %45

38:                                               ; preds = %36
  %39 = load ptr, ptr %5, align 8
  %40 = getelementptr inbounds %struct.Type_, ptr %39, i32 0, i32 7
  %41 = load i32, ptr %40, align 8
  %42 = and i32 %41, 255
  %43 = load i32, ptr getelementptr inbounds (%struct.PlatformTarget, ptr @platform_target, i32 0, i32 33), align 8
  %44 = icmp ult i32 %42, %43
  br label %45

45:                                               ; preds = %38, %36
  %46 = phi i1 [ false, %36 ], [ %44, %38 ]
  br i1 %46, label %47, label %50

47:                                               ; preds = %45
  %48 = load ptr, ptr %7, align 8
  %49 = call ptr @abi_arg_new_direct_int_ext(ptr noundef %48)
  store ptr %49, ptr %6, align 8
  br label %78

50:                                               ; preds = %45
  %51 = call ptr @abi_arg_new_direct()
  store ptr %51, ptr %6, align 8
  br label %78

52:                                               ; preds = %15, %2
  %53 = load ptr, ptr %7, align 8
  %54 = call i32 @type_abi_alignment(ptr noundef %53)
  store i32 %54, ptr %9, align 4
  %55 = load i32, ptr %8, align 4
  %56 = icmp ne i32 %55, 0
  br i1 %56, label %69, label %57

57:                                               ; preds = %52
  %58 = load ptr, ptr %7, align 8
  %59 = call i32 @type_size(ptr noundef %58)
  %60 = zext i32 %59 to i64
  store i64 %60, ptr %10, align 8
  %61 = load i32, ptr %9, align 4
  %62 = icmp ule i32 %61, 8
  br i1 %62, label %63, label %68

63:                                               ; preds = %57
  %64 = load i64, ptr %10, align 8
  %65 = icmp ule i64 %64, 8
  br i1 %65, label %66, label %68

66:                                               ; preds = %63
  %67 = call ptr @abi_arg_new_direct_coerce_int()
  store ptr %67, ptr %6, align 8
  br label %78

68:                                               ; preds = %63, %57
  br label %69

69:                                               ; preds = %68, %52
  %70 = load i32, ptr %9, align 4
  %71 = icmp ult i32 %70, 8
  br i1 %71, label %72, label %75

72:                                               ; preds = %69
  %73 = load ptr, ptr %7, align 8
  %74 = call ptr @abi_arg_new_indirect_realigned(i32 noundef 8, ptr noundef %73)
  store ptr %74, ptr %6, align 8
  br label %78

75:                                               ; preds = %69
  %76 = load ptr, ptr %7, align 8
  %77 = call ptr @abi_arg_new_indirect_by_val(ptr noundef %76)
  store ptr %77, ptr %6, align 8
  br label %78

78:                                               ; preds = %75, %72, %66, %50, %47
  %79 = load ptr, ptr %6, align 8
  ret ptr %79
}