; Function Attrs: nounwind uwtable
define dso_local ptr @x64_indirect_result(ptr nocapture noundef readonly %0, i32 noundef %1) local_unnamed_addr #1 {
  %3 = tail call fastcc ptr @type_lowering(ptr noundef %0)
  %4 = tail call zeroext i1 @type_is_abi_aggregate(ptr noundef %3) #7
  br i1 %4, label %x64_type_is_illegal_vector.exit.thread24, label %5

5:                                                ; preds = %2
  %6 = load i32, ptr %3, align 8
  %.not.i = icmp eq i32 %6, 37
  br i1 %.not.i, label %7, label %x64_type_is_illegal_vector.exit.thread

7:                                                ; preds = %5
  %8 = tail call i32 @type_size(ptr noundef nonnull %3) #7
  %9 = icmp ult i32 %8, 9
  %10 = zext i32 %8 to i64
  %11 = load i32, ptr getelementptr inbounds (%struct.PlatformTarget, ptr @platform_target, i64 0, i32 16, i32 0, i32 2), align 4
  %12 = sext i32 %11 to i64
  %13 = icmp ugt i64 %10, %12
  %or.cond.i = select i1 %9, i1 true, i1 %13
  br i1 %or.cond.i, label %x64_type_is_illegal_vector.exit.thread24, label %14

14:                                               ; preds = %7
  %15 = load i32, ptr getelementptr inbounds (%struct.PlatformTarget, ptr @platform_target, i64 0, i32 16, i32 0, i32 1), align 8
  %16 = and i32 %15, 524288
  %.not8.i = icmp eq i32 %16, 0
  br i1 %.not8.i, label %x64_type_is_illegal_vector.exit.threadthread-pre-split, label %x64_type_is_illegal_vector.exit

x64_type_is_illegal_vector.exit:                  ; preds = %14
  %17 = getelementptr inbounds i8, ptr %3, i64 56
  %18 = load ptr, ptr %17, align 8
  %19 = load i32, ptr %18, align 8
  switch i32 %19, label %x64_type_is_illegal_vector.exit.threadthread-pre-split [
    i32 12, label %x64_type_is_illegal_vector.exit.thread24
    i32 7, label %x64_type_is_illegal_vector.exit.thread24
  ]

x64_type_is_illegal_vector.exit.threadthread-pre-split: ; preds = %x64_type_is_illegal_vector.exit, %14
  %.pr = load i32, ptr %3, align 8
  br label %x64_type_is_illegal_vector.exit.thread

x64_type_is_illegal_vector.exit.thread:           ; preds = %x64_type_is_illegal_vector.exit.threadthread-pre-split, %5
  %20 = phi i32 [ %.pr, %x64_type_is_illegal_vector.exit.threadthread-pre-split ], [ %6, %5 ]
  %21 = icmp eq i32 %20, 31
  br i1 %21, label %22, label %26

22:                                               ; preds = %x64_type_is_illegal_vector.exit.thread
  %23 = getelementptr inbounds i8, ptr %3, i64 8
  %24 = load ptr, ptr %23, align 8
  %25 = load i32, ptr %24, align 8
  br label %26

26:                                               ; preds = %22, %x64_type_is_illegal_vector.exit.thread
  %.0 = phi i32 [ %25, %22 ], [ %20, %x64_type_is_illegal_vector.exit.thread ]
  %27 = add i32 %.0, -2
  %28 = icmp ult i32 %27, 11
  br i1 %28, label %29, label %.critedge

29:                                               ; preds = %26
  %30 = getelementptr inbounds i8, ptr %3, i64 56
  %31 = load i32, ptr %30, align 8
  %32 = and i32 %31, 255
  %33 = load i32, ptr getelementptr inbounds (%struct.PlatformTarget, ptr @platform_target, i64 0, i32 33), align 8
  %34 = icmp ult i32 %32, %33
  br i1 %34, label %35, label %.critedge

35:                                               ; preds = %29
  %36 = tail call ptr @abi_arg_new_direct_int_ext(ptr noundef nonnull %3) #7
  br label %51

.critedge:                                        ; preds = %26, %29
  %37 = tail call ptr @abi_arg_new_direct() #7
  br label %51

x64_type_is_illegal_vector.exit.thread24:         ; preds = %x64_type_is_illegal_vector.exit, %x64_type_is_illegal_vector.exit, %7, %2
  %38 = tail call i32 @type_abi_alignment(ptr noundef %3) #7
  %.not = icmp eq i32 %1, 0
  br i1 %.not, label %39, label %45

39:                                               ; preds = %x64_type_is_illegal_vector.exit.thread24
  %40 = tail call i32 @type_size(ptr noundef %3) #7
  %41 = icmp ult i32 %38, 9
  %42 = icmp ult i32 %40, 9
  %or.cond = select i1 %41, i1 %42, i1 false
  br i1 %or.cond, label %43, label %45

43:                                               ; preds = %39
  %44 = tail call ptr @abi_arg_new_direct_coerce_int() #7
  br label %51

45:                                               ; preds = %39, %x64_type_is_illegal_vector.exit.thread24
  %46 = icmp ult i32 %38, 8
  br i1 %46, label %47, label %49

47:                                               ; preds = %45
  %48 = tail call ptr @abi_arg_new_indirect_realigned(i32 noundef 8, ptr noundef %3) #7
  br label %51

49:                                               ; preds = %45
  %50 = tail call ptr @abi_arg_new_indirect_by_val(ptr noundef %3) #7
  br label %51

51:                                               ; preds = %49, %47, %43, %.critedge, %35
  %.021 = phi ptr [ %48, %47 ], [ %50, %49 ], [ %44, %43 ], [ %36, %35 ], [ %37, %.critedge ]
  ret ptr %.021
}